target datalayout = "e-m:e-p270:32:32-p271:32:32-p272:64:64-i64:64-i128:128-f80:128-n8:16:32:64-S128"
target triple = "x86_64-pc-linux-gnu"

%class.ImageLocation = type { [8 x i64] }
%class.ImageFileReader = type { ptr, i32, i32, ptr, i64, %class.ImageHeader, i64, ptr, ptr, ptr, ptr, ptr, ptr }
%class.ImageHeader = type { i32, i32, i32, i32, i32, i32, i32 }

; Function Attrs: mustprogress nounwind uwtable
define linkonce_odr hidden noundef i64 @_ZN13ImageLocation15attribute_valueEPhh(ptr noundef %0, i8 noundef zeroext %1) #0 comdat align 2 {
  %3 = alloca ptr, align 8
  %4 = alloca i8, align 1
  %5 = alloca i64, align 8
  %6 = alloca i8, align 1
  store ptr %0, ptr %3, align 8
  store i8 %1, ptr %4, align 1
  store i64 0, ptr %5, align 8
  store i8 0, ptr %6, align 1
  br label %7

7:                                                ; preds = %24, %2
  %8 = load i8, ptr %6, align 1
  %9 = zext i8 %8 to i32
  %10 = load i8, ptr %4, align 1
  %11 = zext i8 %10 to i32
  %12 = icmp slt i32 %9, %11
  br i1 %12, label %13, label %27

13:                                               ; preds = %7
  %14 = load i64, ptr %5, align 8
  %15 = shl i64 %14, 8
  store i64 %15, ptr %5, align 8
  %16 = load ptr, ptr %3, align 8
  %17 = load i8, ptr %6, align 1
  %18 = zext i8 %17 to i64
  %19 = getelementptr inbounds i8, ptr %16, i64 %18
  %20 = load i8, ptr %19, align 1
  %21 = zext i8 %20 to i64
  %22 = load i64, ptr %5, align 8
  %23 = or i64 %22, %21
  store i64 %23, ptr %5, align 8
  br label %24

24:                                               ; preds = %13
  %25 = load i8, ptr %6, align 1
  %26 = add i8 %25, 1
  store i8 %26, ptr %6, align 1
  br label %7, !llvm.loop !10

27:                                               ; preds = %7
  %28 = load i64, ptr %5, align 8
  ret i64 %28
}

; Function Attrs: mustprogress nounwind uwtable
define linkonce_odr hidden noundef zeroext i8 @_ZN13ImageLocation16attribute_lengthEh(i8 noundef zeroext %0) #0 comdat align 2 {
  %2 = alloca i8, align 1
  store i8 %0, ptr %2, align 1
  %3 = load i8, ptr %2, align 1
  %4 = zext i8 %3 to i32
  %5 = and i32 %4, 7
  %6 = add nsw i32 %5, 1
  %7 = trunc i32 %6 to i8
  ret i8 %7
}

; Function Attrs: mustprogress nounwind uwtable
define linkonce_odr hidden noundef zeroext i8 @_ZN13ImageLocation14attribute_kindEh(i8 noundef zeroext %0) #0 comdat align 2 {
  %2 = alloca i8, align 1
  %3 = alloca i8, align 1
  store i8 %0, ptr %2, align 1
  %4 = load i8, ptr %2, align 1
  %5 = zext i8 %4 to i32
  %6 = ashr i32 %5, 3
  %7 = trunc i32 %6 to i8
  store i8 %7, ptr %3, align 1
  %8 = load i8, ptr %3, align 1
  ret i8 %8
}

; Function Attrs: mustprogress uwtable
define hidden void @_ZN13ImageLocation8set_dataEPh(ptr noundef nonnull align 8 dereferenceable(64) %0, ptr noundef %1) #1 align 2 {
  %3 = alloca ptr, align 8
  %4 = alloca ptr, align 8
  %5 = alloca i8, align 1
  %6 = alloca i8, align 1
  %7 = alloca i8, align 1
  store ptr %0, ptr %3, align 8
  store ptr %1, ptr %4, align 8
  %8 = load ptr, ptr %3, align 8
  br label %9

9:                                                ; preds = %25, %2
  %10 = load ptr, ptr %4, align 8
  %11 = icmp ne ptr %10, null
  br i1 %11, label %12, label %16

12:                                               ; preds = %9
  %13 = load ptr, ptr %4, align 8
  %14 = load i8, ptr %13, align 1
  store i8 %14, ptr %5, align 1
  %15 = icmp ne i8 %14, 0
  br label %16

16:                                               ; preds = %12, %9
  %17 = phi i1 [ false, %9 ], [ %15, %12 ]
  br i1 %17, label %18, label %42

18:                                               ; preds = %16
  %19 = load i8, ptr %5, align 1
  %20 = call noundef zeroext i8 @_ZN13ImageLocation14attribute_kindEh(i8 noundef zeroext %19)
  store i8 %20, ptr %6, align 1
  %21 = load i8, ptr %6, align 1
  %22 = zext i8 %21 to i32
  %23 = icmp eq i32 %22, 0
  br i1 %23, label %24, label %25

24:                                               ; preds = %18
  br label %42

25:                                               ; preds = %18
  %26 = load i8, ptr %5, align 1
  %27 = call noundef zeroext i8 @_ZN13ImageLocation16attribute_lengthEh(i8 noundef zeroext %26)
  store i8 %27, ptr %7, align 1
  %28 = load ptr, ptr %4, align 8
  %29 = getelementptr inbounds i8, ptr %28, i64 1
  %30 = load i8, ptr %7, align 1
  %31 = call noundef i64 @_ZN13ImageLocation15attribute_valueEPhh(ptr noundef %29, i8 noundef zeroext %30)
  %32 = getelementptr inbounds %class.ImageLocation, ptr %8, i32 0, i32 0
  %33 = load i8, ptr %6, align 1
  %34 = zext i8 %33 to i64
  %35 = getelementptr inbounds [8 x i64], ptr %32, i64 0, i64 %34
  store i64 %31, ptr %35, align 8
  %36 = load i8, ptr %7, align 1
  %37 = zext i8 %36 to i32
  %38 = add nsw i32 %37, 1
  %39 = load ptr, ptr %4, align 8
  %40 = sext i32 %38 to i64
  %41 = getelementptr inbounds i8, ptr %39, i64 %40
  store ptr %41, ptr %4, align 8
  br label %9, !llvm.loop !9

42:                                               ; preds = %24, %16
  ret void
}

; Function Attrs: mustprogress nounwind uwtable
define hidden void @_ZN13ImageLocation10clear_dataEv(ptr noundef nonnull align 8 dereferenceable(64) %0) #0 align 2 {
  %2 = alloca ptr, align 8
  store ptr %0, ptr %2, align 8
  %3 = load ptr, ptr %2, align 8
  %4 = getelementptr inbounds %class.ImageLocation, ptr %3, i32 0, i32 0
  %5 = getelementptr inbounds [8 x i64], ptr %4, i64 0, i64 0
  call void @llvm.memset.p0.i64(ptr align 8 %5, i8 0, i64 64, i1 false)
  ret void
}

; Function Attrs: mustprogress uwtable
define linkonce_odr hidden void @_ZN13ImageLocationC2EPh(ptr noundef nonnull align 8 dereferenceable(64) %0, ptr noundef %1) unnamed_addr #1 comdat align 2 {
  %3 = alloca ptr, align 8
  %4 = alloca ptr, align 8
  store ptr %0, ptr %3, align 8
  store ptr %1, ptr %4, align 8
  %5 = load ptr, ptr %3, align 8
  call void @_ZN13ImageLocation10clear_dataEv(ptr noundef nonnull align 8 dereferenceable(64) %5)
  %6 = load ptr, ptr %4, align 8
  call void @_ZN13ImageLocation8set_dataEPh(ptr noundef nonnull align 8 dereferenceable(64) %5, ptr noundef %6)
  ret void
}

; Function Attrs: mustprogress nounwind uwtable
define linkonce_odr hidden noundef ptr @_ZNK15ImageFileReader24get_location_offset_dataEj(ptr noundef nonnull align 8 dereferenceable(120) %0, i32 noundef %1) #0 comdat align 2 {
  %3 = alloca ptr, align 8
  %4 = alloca i32, align 4
  store ptr %0, ptr %3, align 8
  store i32 %1, ptr %4, align 4
  %5 = load ptr, ptr %3, align 8
  %6 = load i32, ptr %4, align 4
  %7 = icmp ne i32 %6, 0
  br i1 %7, label %8, label %14

8:                                                ; preds = %2
  %9 = getelementptr inbounds %class.ImageFileReader, ptr %5, i32 0, i32 10
  %10 = load ptr, ptr %9, align 8
  %11 = load i32, ptr %4, align 4
  %12 = zext i32 %11 to i64
  %13 = getelementptr inbounds i8, ptr %10, i64 %12
  br label %15

14:                                               ; preds = %2
  br label %15

15:                                               ; preds = %14, %8
  %16 = phi ptr [ %13, %8 ], [ null, %14 ]
  ret ptr %16
}

; Function Attrs: mustprogress uwtable
define hidden void @_ZNK15ImageFileReader12get_resourceEjPh(ptr noundef nonnull align 8 dereferenceable(120) %0, i32 noundef %1, ptr noundef %2) #1 align 2 {
  %4 = alloca ptr, align 8
  %5 = alloca i32, align 4
  %6 = alloca ptr, align 8
  %7 = alloca ptr, align 8
  %8 = alloca %class.ImageLocation, align 8
  store ptr %0, ptr %4, align 8
  store i32 %1, ptr %5, align 4
  store ptr %2, ptr %6, align 8
  %9 = load ptr, ptr %4, align 8
  %10 = load i32, ptr %5, align 4
  %11 = call noundef ptr @_ZNK15ImageFileReader24get_location_offset_dataEj(ptr noundef nonnull align 8 dereferenceable(120) %9, i32 noundef %10)
  store ptr %11, ptr %7, align 8
  %12 = load ptr, ptr %7, align 8
  call void @_ZN13ImageLocationC2EPh(ptr noundef nonnull align 8 dereferenceable(64) %8, ptr noundef %12)
  %13 = load ptr, ptr %6, align 8
  call void @_ZNK15ImageFileReader12get_resourceER13ImageLocationPh(ptr noundef nonnull align 8 dereferenceable(120) %9, ptr noundef nonnull align 8 dereferenceable(64) %8, ptr noundef %13)
  ret void
}