; Function Attrs: mustprogress uwtable
define hidden void @_ZNK15ImageFileReader12get_resourceEjPh(ptr nocapture noundef nonnull readonly align 8 dereferenceable(120) %0, i32 noundef %1, ptr noundef %2) local_unnamed_addr #1 align 2 {
  %4 = alloca %class.ImageLocation, align 8
  %.not.i = icmp eq i32 %1, 0
  %5 = getelementptr inbounds i8, ptr %0, i64 96
  %6 = load ptr, ptr %5, align 8
  call void @llvm.memset.p0.i64(ptr noundef nonnull align 8 dereferenceable(64) %4, i8 0, i64 64, i1 false)
  %.not12.i.i3 = icmp eq ptr %6, null
  %.not12.i.i = select i1 %.not.i, i1 true, i1 %.not12.i.i3
  br i1 %.not12.i.i, label %_ZN13ImageLocationC2EPh.exit, label %.lr.ph.i.preheader.i

.lr.ph.i.preheader.i:                             ; preds = %3
  %7 = zext i32 %1 to i64
  %8 = getelementptr inbounds i8, ptr %6, i64 %7
  %9 = load i8, ptr %8, align 1
  %.not11.i2.i = icmp eq i8 %9, 0
  br i1 %.not11.i2.i, label %_ZN13ImageLocationC2EPh.exit, label %.lr.ph.i

.lr.ph.i:                                         ; preds = %.lr.ph.i.preheader.i, %_ZN13ImageLocation15attribute_valueEPhh.exit.i.i
  %10 = phi i8 [ %25, %_ZN13ImageLocation15attribute_valueEPhh.exit.i.i ], [ %9, %.lr.ph.i.preheader.i ]
  %.013.i3.i = phi ptr [ %24, %_ZN13ImageLocation15attribute_valueEPhh.exit.i.i ], [ %8, %.lr.ph.i.preheader.i ]
  %11 = lshr i8 %10, 3
  %12 = icmp ult i8 %10, 8
  br i1 %12, label %_ZN13ImageLocationC2EPh.exit, label %13

13:                                               ; preds = %.lr.ph.i
  %14 = and i8 %10, 7
  %narrow.i.i.i = add nuw nsw i8 %14, 1
  %15 = getelementptr inbounds i8, ptr %.013.i3.i, i64 1
  %wide.trip.count.i.i.i = zext nneg i8 %narrow.i.i.i to i64
  br label %.lr.ph.i.i.i

.lr.ph.i.i.i:                                     ; preds = %.lr.ph.i.i.i, %13
  %indvars.iv.i.i.i = phi i64 [ 0, %13 ], [ %indvars.iv.next.i.i.i, %.lr.ph.i.i.i ]
  %.078.i.i.i = phi i64 [ 0, %13 ], [ %20, %.lr.ph.i.i.i ]
  %16 = shl i64 %.078.i.i.i, 8
  %17 = getelementptr inbounds i8, ptr %15, i64 %indvars.iv.i.i.i
  %18 = load i8, ptr %17, align 1
  %19 = zext i8 %18 to i64
  %20 = or disjoint i64 %16, %19
  %indvars.iv.next.i.i.i = add nuw nsw i64 %indvars.iv.i.i.i, 1
  %exitcond.not.i.i.i = icmp eq i64 %indvars.iv.next.i.i.i, %wide.trip.count.i.i.i
  br i1 %exitcond.not.i.i.i, label %_ZN13ImageLocation15attribute_valueEPhh.exit.i.i, label %.lr.ph.i.i.i, !llvm.loop !9

_ZN13ImageLocation15attribute_valueEPhh.exit.i.i: ; preds = %.lr.ph.i.i.i
  %21 = zext nneg i8 %11 to i64
  %22 = getelementptr inbounds [8 x i64], ptr %4, i64 0, i64 %21
  store i64 %20, ptr %22, align 8
  %23 = add nuw nsw i64 %wide.trip.count.i.i.i, 1
  %24 = getelementptr inbounds i8, ptr %.013.i3.i, i64 %23
  %25 = load i8, ptr %24, align 1
  %.not11.i.i = icmp eq i8 %25, 0
  br i1 %.not11.i.i, label %_ZN13ImageLocationC2EPh.exit, label %.lr.ph.i

_ZN13ImageLocationC2EPh.exit:                     ; preds = %.lr.ph.i, %_ZN13ImageLocation15attribute_valueEPhh.exit.i.i, %3, %.lr.ph.i.preheader.i
  call void @_ZNK15ImageFileReader12get_resourceER13ImageLocationPh(ptr noundef nonnull align 8 dereferenceable(120) %0, ptr noundef nonnull align 8 dereferenceable(64) %4, ptr noundef %2)
  ret void
}